target datalayout = "e-m:e-p270:32:32-p271:32:32-p272:64:64-i64:64-i128:128-f80:128-n8:16:32:64-S128"
target triple = "x86_64-pc-linux-gnu"

%"class.std::__cxx11::basic_string" = type { %"struct.std::__cxx11::basic_string<char>::_Alloc_hider", i64, %union.anon }
%"struct.std::__cxx11::basic_string<char>::_Alloc_hider" = type { ptr }
%union.anon = type { i64, [8 x i8] }
%"class.gmx::(anonymous namespace)::ModificationCheckingFileOutputRedirector" = type { %"class.gmx::IFileOutputRedirector", ptr }
%"class.gmx::IFileOutputRedirector" = type { ptr }
%"class.std::__shared_count" = type { ptr }
%"class.std::_Sp_counted_base" = type { ptr, i32, i32 }
%"class.std::shared_ptr.134" = type { %"class.std::__shared_ptr.135" }
%"class.std::__shared_ptr.135" = type { ptr, %"class.std::__shared_count" }
%"class.gmx::(anonymous namespace)::ModificationCheckingFileOutputStream" = type { %"class.gmx::TextOutputStream", %"class.std::filesystem::__cxx11::path", %"class.gmx::StringOutputStream", ptr }
%"class.gmx::TextOutputStream" = type { ptr }
%"class.std::filesystem::__cxx11::path" = type { %"class.std::__cxx11::basic_string", %"struct.std::filesystem::__cxx11::path::_List" }
%"struct.std::filesystem::__cxx11::path::_List" = type { %"class.std::unique_ptr.137" }
%"class.std::unique_ptr.137" = type { %"struct.std::__uniq_ptr_data.138" }
%"struct.std::__uniq_ptr_data.138" = type { %"class.std::__uniq_ptr_impl.139" }
%"class.std::__uniq_ptr_impl.139" = type { %"class.std::tuple.140" }
%"class.std::tuple.140" = type { %"struct.std::_Tuple_impl.141" }
%"struct.std::_Tuple_impl.141" = type { %"struct.std::_Head_base.144" }
%"struct.std::_Head_base.144" = type { ptr }
%"class.gmx::StringOutputStream" = type { %"class.gmx::TextOutputStream", %"class.std::__cxx11::basic_string" }
%"class.std::_Sp_counted_ptr" = type { %"class.std::_Sp_counted_base", ptr }

@_ZTVN3gmx16TextOutputStreamE = linkonce_odr unnamed_addr constant { [6 x ptr] } { [6 x ptr] [ptr null, ptr @_ZTIN3gmx16TextOutputStreamE, ptr @_ZN3gmx16TextOutputStreamD2Ev, ptr @_ZN3gmx16TextOutputStreamD0Ev, ptr @__cxa_pure_virtual, ptr @__cxa_pure_virtual] }, comdat, align 8
@_ZTVN3gmx18StringOutputStreamE = external unnamed_addr constant { [6 x ptr] }, align 8

; Function Attrs: mustprogress nounwind uwtable
define linkonce_odr void @_ZNSt16_Sp_counted_baseILN9__gnu_cxx12_Lock_policyE2EEC2Ev(ptr noundef nonnull align 8 dereferenceable(16) %0) unnamed_addr #0 comdat align 2 {
  %2 = alloca ptr, align 8
  store ptr %0, ptr %2, align 8
  %3 = load ptr, ptr %2, align 8
  store ptr getelementptr inbounds inrange(-16, 40) ({ [7 x ptr] }, ptr @_ZTVSt16_Sp_counted_baseILN9__gnu_cxx12_Lock_policyE2EE, i32 0, i32 0, i32 2), ptr %3, align 8
  %4 = getelementptr inbounds %"class.std::_Sp_counted_base", ptr %3, i32 0, i32 1
  store i32 1, ptr %4, align 8
  %5 = getelementptr inbounds %"class.std::_Sp_counted_base", ptr %3, i32 0, i32 2
  store i32 1, ptr %5, align 4
  ret void
}

; Function Attrs: mustprogress nounwind uwtable
define internal void @_ZNSt15_Sp_counted_ptrIPN3gmx12_GLOBAL__N_136ModificationCheckingFileOutputStreamELN9__gnu_cxx12_Lock_policyE2EEC2ES3_(ptr noundef nonnull align 8 dereferenceable(24) %0, ptr noundef %1) unnamed_addr #0 align 2 {
  %3 = alloca ptr, align 8
  %4 = alloca ptr, align 8
  store ptr %0, ptr %3, align 8
  store ptr %1, ptr %4, align 8
  %5 = load ptr, ptr %3, align 8
  call void @_ZNSt16_Sp_counted_baseILN9__gnu_cxx12_Lock_policyE2EEC2Ev(ptr noundef nonnull align 8 dereferenceable(16) %5) #14
  store ptr getelementptr inbounds inrange(-16, 40) ({ [7 x ptr] }, ptr @_ZTVSt15_Sp_counted_ptrIPN3gmx12_GLOBAL__N_136ModificationCheckingFileOutputStreamELN9__gnu_cxx12_Lock_policyE2EE, i32 0, i32 0, i32 2), ptr %5, align 8
  %6 = getelementptr inbounds %"class.std::_Sp_counted_ptr", ptr %5, i32 0, i32 1
  %7 = load ptr, ptr %4, align 8
  store ptr %7, ptr %6, align 8
  ret void
}

; Function Attrs: mustprogress uwtable
define internal void @_ZNSt14__shared_countILN9__gnu_cxx12_Lock_policyE2EEC2IPN3gmx12_GLOBAL__N_136ModificationCheckingFileOutputStreamEEET_(ptr noundef nonnull align 8 dereferenceable(8) %0, ptr noundef %1) unnamed_addr #1 align 2 personality ptr @__gxx_personality_v0 {
  %3 = alloca ptr, align 8
  %4 = alloca ptr, align 8
  %5 = alloca ptr, align 8
  %6 = alloca i32, align 4
  store ptr %0, ptr %3, align 8
  store ptr %1, ptr %4, align 8
  %7 = load ptr, ptr %3, align 8
  %8 = getelementptr inbounds %"class.std::__shared_count", ptr %7, i32 0, i32 0
  store ptr null, ptr %8, align 8
  %9 = invoke noalias noundef nonnull ptr @_Znwm(i64 noundef 24) #16
          to label %10 unwind label %13

10:                                               ; preds = %2
  %11 = load ptr, ptr %4, align 8
  call void @_ZNSt15_Sp_counted_ptrIPN3gmx12_GLOBAL__N_136ModificationCheckingFileOutputStreamELN9__gnu_cxx12_Lock_policyE2EEC2ES3_(ptr noundef nonnull align 8 dereferenceable(24) %9, ptr noundef %11) #14
  %12 = getelementptr inbounds %"class.std::__shared_count", ptr %7, i32 0, i32 0
  store ptr %9, ptr %12, align 8
  br label %32

13:                                               ; preds = %2
  %14 = landingpad { ptr, i32 }
          catch ptr null
  %15 = extractvalue { ptr, i32 } %14, 0
  store ptr %15, ptr %5, align 8
  %16 = extractvalue { ptr, i32 } %14, 1
  store i32 %16, ptr %6, align 4
  br label %17

17:                                               ; preds = %13
  %18 = load ptr, ptr %5, align 8
  %19 = call ptr @__cxa_begin_catch(ptr %18) #14
  %20 = load ptr, ptr %4, align 8
  %21 = icmp eq ptr %20, null
  br i1 %21, label %26, label %22

22:                                               ; preds = %17
  %23 = load ptr, ptr %20, align 8
  %24 = getelementptr inbounds ptr, ptr %23, i64 1
  %25 = load ptr, ptr %24, align 8
  call void %25(ptr noundef nonnull align 8 dereferenceable(96) %20) #14
  br label %26

26:                                               ; preds = %22, %17
  invoke void @__cxa_rethrow() #17
          to label %41 unwind label %27

27:                                               ; preds = %26
  %28 = landingpad { ptr, i32 }
          cleanup
  %29 = extractvalue { ptr, i32 } %28, 0
  store ptr %29, ptr %5, align 8
  %30 = extractvalue { ptr, i32 } %28, 1
  store i32 %30, ptr %6, align 4
  invoke void @__cxa_end_catch()
          to label %31 unwind label %38

31:                                               ; preds = %27
  br label %33

32:                                               ; preds = %10
  ret void

33:                                               ; preds = %31
  %34 = load ptr, ptr %5, align 8
  %35 = load i32, ptr %6, align 4
  %36 = insertvalue { ptr, i32 } poison, ptr %34, 0
  %37 = insertvalue { ptr, i32 } %36, i32 %35, 1
  resume { ptr, i32 } %37

38:                                               ; preds = %27
  %39 = landingpad { ptr, i32 }
          catch ptr null
  %40 = extractvalue { ptr, i32 } %39, 0
  call void @__clang_call_terminate(ptr %40) #18
  unreachable

41:                                               ; preds = %26
  unreachable
}

; Function Attrs: mustprogress nounwind uwtable
define internal void @_ZNSt12__shared_ptrIN3gmx16TextOutputStreamELN9__gnu_cxx12_Lock_policyE2EE31_M_enable_shared_from_this_withINS0_12_GLOBAL__N_136ModificationCheckingFileOutputStreamES7_EENSt9enable_ifIXntsr15__has_esft_baseIT0_EE5valueEvE4typeEPT_(ptr noundef nonnull align 8 dereferenceable(16) %0, ptr noundef %1) #0 align 2 {
  %3 = alloca ptr, align 8
  %4 = alloca ptr, align 8
  store ptr %0, ptr %3, align 8
  store ptr %1, ptr %4, align 8
  ret void
}

; Function Attrs: mustprogress uwtable
define internal void @_ZNSt14__shared_countILN9__gnu_cxx12_Lock_policyE2EEC2IPN3gmx12_GLOBAL__N_136ModificationCheckingFileOutputStreamEEET_St17integral_constantIbLb0EE(ptr noundef nonnull align 8 dereferenceable(8) %0, ptr noundef %1) unnamed_addr #1 align 2 {
  %3 = alloca ptr, align 8
  %4 = alloca ptr, align 8
  store ptr %0, ptr %3, align 8
  store ptr %1, ptr %4, align 8
  %5 = load ptr, ptr %3, align 8
  %6 = load ptr, ptr %4, align 8
  call void @_ZNSt14__shared_countILN9__gnu_cxx12_Lock_policyE2EEC2IPN3gmx12_GLOBAL__N_136ModificationCheckingFileOutputStreamEEET_(ptr noundef nonnull align 8 dereferenceable(8) %5, ptr noundef %6)
  ret void
}

; Function Attrs: mustprogress uwtable
define internal void @_ZNSt12__shared_ptrIN3gmx16TextOutputStreamELN9__gnu_cxx12_Lock_policyE2EEC2INS0_12_GLOBAL__N_136ModificationCheckingFileOutputStreamEvEEPT_(ptr noundef nonnull align 8 dereferenceable(16) %0, ptr noundef %1) unnamed_addr #1 align 2 {
  %3 = alloca ptr, align 8
  %4 = alloca ptr, align 8
  store ptr %0, ptr %3, align 8
  store ptr %1, ptr %4, align 8
  %5 = load ptr, ptr %3, align 8
  %6 = getelementptr inbounds %"class.std::__shared_ptr.135", ptr %5, i32 0, i32 0
  %7 = load ptr, ptr %4, align 8
  store ptr %7, ptr %6, align 8
  %8 = getelementptr inbounds %"class.std::__shared_ptr.135", ptr %5, i32 0, i32 1
  %9 = load ptr, ptr %4, align 8
  call void @_ZNSt14__shared_countILN9__gnu_cxx12_Lock_policyE2EEC2IPN3gmx12_GLOBAL__N_136ModificationCheckingFileOutputStreamEEET_St17integral_constantIbLb0EE(ptr noundef nonnull align 8 dereferenceable(8) %8, ptr noundef %9)
  %10 = load ptr, ptr %4, align 8
  call void @_ZNSt12__shared_ptrIN3gmx16TextOutputStreamELN9__gnu_cxx12_Lock_policyE2EE31_M_enable_shared_from_this_withINS0_12_GLOBAL__N_136ModificationCheckingFileOutputStreamES7_EENSt9enable_ifIXntsr15__has_esft_baseIT0_EE5valueEvE4typeEPT_(ptr noundef nonnull align 8 dereferenceable(16) %5, ptr noundef %10) #14
  ret void
}

; Function Attrs: mustprogress nounwind uwtable
define linkonce_odr void @_ZN3gmx16TextOutputStreamD2Ev(ptr noundef nonnull align 8 dereferenceable(8) %0) unnamed_addr #0 comdat align 2 {
  %2 = alloca ptr, align 8
  store ptr %0, ptr %2, align 8
  ret void
}

; Function Attrs: mustprogress nounwind uwtable
define linkonce_odr void @_ZN3gmx18StringOutputStreamC2Ev(ptr noundef nonnull align 8 dereferenceable(40) %0) unnamed_addr #0 comdat align 2 {
  %2 = alloca ptr, align 8
  store ptr %0, ptr %2, align 8
  %3 = load ptr, ptr %2, align 8
  call void @_ZN3gmx16TextOutputStreamC2Ev(ptr noundef nonnull align 8 dereferenceable(8) %3) #14
  store ptr getelementptr inbounds inrange(-16, 32) ({ [6 x ptr] }, ptr @_ZTVN3gmx18StringOutputStreamE, i32 0, i32 0, i32 2), ptr %3, align 8
  %4 = getelementptr inbounds %"class.gmx::StringOutputStream", ptr %3, i32 0, i32 1
  call void @_ZNSt7__cxx1112basic_stringIcSt11char_traitsIcESaIcEEC1Ev(ptr noundef nonnull align 8 dereferenceable(32) %4) #14
  ret void
}

; Function Attrs: mustprogress uwtable
define linkonce_odr void @_ZNSt10filesystem7__cxx114pathC2ERKS1_(ptr noundef nonnull align 8 dereferenceable(40) %0, ptr noundef nonnull align 8 dereferenceable(40) %1) unnamed_addr #1 comdat align 2 personality ptr @__gxx_personality_v0 {
  %3 = alloca ptr, align 8
  %4 = alloca ptr, align 8
  %5 = alloca ptr, align 8
  %6 = alloca i32, align 4
  store ptr %0, ptr %3, align 8
  store ptr %1, ptr %4, align 8
  %7 = load ptr, ptr %3, align 8
  %8 = getelementptr inbounds %"class.std::filesystem::__cxx11::path", ptr %7, i32 0, i32 0
  %9 = load ptr, ptr %4, align 8
  %10 = getelementptr inbounds %"class.std::filesystem::__cxx11::path", ptr %9, i32 0, i32 0
  call void @_ZNSt7__cxx1112basic_stringIcSt11char_traitsIcESaIcEEC1ERKS4_(ptr noundef nonnull align 8 dereferenceable(32) %8, ptr noundef nonnull align 8 dereferenceable(32) %10)
  %11 = getelementptr inbounds %"class.std::filesystem::__cxx11::path", ptr %7, i32 0, i32 1
  %12 = load ptr, ptr %4, align 8
  %13 = getelementptr inbounds %"class.std::filesystem::__cxx11::path", ptr %12, i32 0, i32 1
  invoke void @_ZNSt10filesystem7__cxx114path5_ListC1ERKS2_(ptr noundef nonnull align 8 dereferenceable(8) %11, ptr noundef nonnull align 8 dereferenceable(8) %13)
          to label %14 unwind label %15

14:                                               ; preds = %2
  ret void

15:                                               ; preds = %2
  %16 = landingpad { ptr, i32 }
          cleanup
  %17 = extractvalue { ptr, i32 } %16, 0
  store ptr %17, ptr %5, align 8
  %18 = extractvalue { ptr, i32 } %16, 1
  store i32 %18, ptr %6, align 4
  call void @_ZNSt7__cxx1112basic_stringIcSt11char_traitsIcESaIcEED1Ev(ptr noundef nonnull align 8 dereferenceable(32) %8) #14
  br label %19

19:                                               ; preds = %15
  %20 = load ptr, ptr %5, align 8
  %21 = load i32, ptr %6, align 4
  %22 = insertvalue { ptr, i32 } poison, ptr %20, 0
  %23 = insertvalue { ptr, i32 } %22, i32 %21, 1
  resume { ptr, i32 } %23
}

; Function Attrs: mustprogress nounwind uwtable
define linkonce_odr void @_ZN3gmx16TextOutputStreamC2Ev(ptr noundef nonnull align 8 dereferenceable(8) %0) unnamed_addr #0 comdat align 2 {
  %2 = alloca ptr, align 8
  store ptr %0, ptr %2, align 8
  %3 = load ptr, ptr %2, align 8
  store ptr getelementptr inbounds inrange(-16, 32) ({ [6 x ptr] }, ptr @_ZTVN3gmx16TextOutputStreamE, i32 0, i32 0, i32 2), ptr %3, align 8
  ret void
}

; Function Attrs: mustprogress uwtable
define internal void @_ZNSt10shared_ptrIN3gmx16TextOutputStreamEEC2INS0_12_GLOBAL__N_136ModificationCheckingFileOutputStreamEvEEPT_(ptr noundef nonnull align 8 dereferenceable(16) %0, ptr noundef %1) unnamed_addr #1 align 2 {
  %3 = alloca ptr, align 8
  %4 = alloca ptr, align 8
  store ptr %0, ptr %3, align 8
  store ptr %1, ptr %4, align 8
  %5 = load ptr, ptr %3, align 8
  %6 = load ptr, ptr %4, align 8
  call void @_ZNSt12__shared_ptrIN3gmx16TextOutputStreamELN9__gnu_cxx12_Lock_policyE2EEC2INS0_12_GLOBAL__N_136ModificationCheckingFileOutputStreamEvEEPT_(ptr noundef nonnull align 8 dereferenceable(16) %5, ptr noundef %6)
  ret void
}

; Function Attrs: mustprogress uwtable
define internal void @_ZN3gmx12_GLOBAL__N_136ModificationCheckingFileOutputStreamC2ERKNSt10filesystem7__cxx114pathEPNS_21IFileOutputRedirectorE(ptr noundef nonnull align 8 dereferenceable(96) %0, ptr noundef nonnull align 8 dereferenceable(40) %1, ptr noundef %2) unnamed_addr #1 align 2 personality ptr @__gxx_personality_v0 {
  %4 = alloca ptr, align 8
  %5 = alloca ptr, align 8
  %6 = alloca ptr, align 8
  %7 = alloca ptr, align 8
  %8 = alloca i32, align 4
  store ptr %0, ptr %4, align 8
  store ptr %1, ptr %5, align 8
  store ptr %2, ptr %6, align 8
  %9 = load ptr, ptr %4, align 8
  call void @_ZN3gmx16TextOutputStreamC2Ev(ptr noundef nonnull align 8 dereferenceable(8) %9) #14
  store ptr getelementptr inbounds inrange(-16, 32) ({ [6 x ptr] }, ptr @_ZTVN3gmx12_GLOBAL__N_136ModificationCheckingFileOutputStreamE, i32 0, i32 0, i32 2), ptr %9, align 8
  %10 = getelementptr inbounds %"class.gmx::(anonymous namespace)::ModificationCheckingFileOutputStream", ptr %9, i32 0, i32 1
  %11 = load ptr, ptr %5, align 8
  invoke void @_ZNSt10filesystem7__cxx114pathC2ERKS1_(ptr noundef nonnull align 8 dereferenceable(40) %10, ptr noundef nonnull align 8 dereferenceable(40) %11)
          to label %12 unwind label %16

12:                                               ; preds = %3
  %13 = getelementptr inbounds %"class.gmx::(anonymous namespace)::ModificationCheckingFileOutputStream", ptr %9, i32 0, i32 2
  call void @_ZN3gmx18StringOutputStreamC2Ev(ptr noundef nonnull align 8 dereferenceable(40) %13) #14
  %14 = getelementptr inbounds %"class.gmx::(anonymous namespace)::ModificationCheckingFileOutputStream", ptr %9, i32 0, i32 3
  %15 = load ptr, ptr %6, align 8
  store ptr %15, ptr %14, align 8
  ret void

16:                                               ; preds = %3
  %17 = landingpad { ptr, i32 }
          cleanup
  %18 = extractvalue { ptr, i32 } %17, 0
  store ptr %18, ptr %7, align 8
  %19 = extractvalue { ptr, i32 } %17, 1
  store i32 %19, ptr %8, align 4
  call void @_ZN3gmx16TextOutputStreamD2Ev(ptr noundef nonnull align 8 dereferenceable(8) %9) #14
  br label %20

20:                                               ; preds = %16
  %21 = load ptr, ptr %7, align 8
  %22 = load i32, ptr %8, align 4
  %23 = insertvalue { ptr, i32 } poison, ptr %21, 0
  %24 = insertvalue { ptr, i32 } %23, i32 %22, 1
  resume { ptr, i32 } %24
}

; Function Attrs: mustprogress uwtable
define internal void @_ZN3gmx12_GLOBAL__N_140ModificationCheckingFileOutputRedirector18openTextOutputFileERKNSt10filesystem7__cxx114pathE(ptr dead_on_unwind noalias writable sret(%"class.std::shared_ptr.134") align 8 %0, ptr noundef nonnull align 8 dereferenceable(16) %1, ptr noundef nonnull align 8 dereferenceable(40) %2) unnamed_addr #1 align 2 personality ptr @__gxx_personality_v0 {
  %4 = alloca ptr, align 8
  %5 = alloca ptr, align 8
  %6 = alloca ptr, align 8
  %7 = alloca ptr, align 8
  %8 = alloca i32, align 4
  store ptr %0, ptr %4, align 8
  store ptr %1, ptr %5, align 8
  store ptr %2, ptr %6, align 8
  %9 = load ptr, ptr %5, align 8
  %10 = call noalias noundef nonnull ptr @_Znwm(i64 noundef 96) #16
  %11 = load ptr, ptr %6, align 8
  %12 = getelementptr inbounds %"class.gmx::(anonymous namespace)::ModificationCheckingFileOutputRedirector", ptr %9, i32 0, i32 1
  %13 = load ptr, ptr %12, align 8
  invoke void @_ZN3gmx12_GLOBAL__N_136ModificationCheckingFileOutputStreamC2ERKNSt10filesystem7__cxx114pathEPNS_21IFileOutputRedirectorE(ptr noundef nonnull align 8 dereferenceable(96) %10, ptr noundef nonnull align 8 dereferenceable(40) %11, ptr noundef %13)
          to label %14 unwind label %15

14:                                               ; preds = %3
  call void @_ZNSt10shared_ptrIN3gmx16TextOutputStreamEEC2INS0_12_GLOBAL__N_136ModificationCheckingFileOutputStreamEvEEPT_(ptr noundef nonnull align 8 dereferenceable(16) %0, ptr noundef %10)
  ret void

15:                                               ; preds = %3
  %16 = landingpad { ptr, i32 }
          cleanup
  %17 = extractvalue { ptr, i32 } %16, 0
  store ptr %17, ptr %7, align 8
  %18 = extractvalue { ptr, i32 } %16, 1
  store i32 %18, ptr %8, align 4
  call void @_ZdlPv(ptr noundef %10) #15
  br label %19

19:                                               ; preds = %15
  %20 = load ptr, ptr %7, align 8
  %21 = load i32, ptr %8, align 4
  %22 = insertvalue { ptr, i32 } poison, ptr %20, 0
  %23 = insertvalue { ptr, i32 } %22, i32 %21, 1
  resume { ptr, i32 } %23
}