; Function Attrs: mustprogress uwtable
define internal void @_ZN3gmx12_GLOBAL__N_140ModificationCheckingFileOutputRedirector18openTextOutputFileERKNSt10filesystem7__cxx114pathE(ptr dead_on_unwind noalias nocapture writable writeonly sret(%"class.std::shared_ptr.134") align 8 %0, ptr nocapture noundef nonnull readonly align 8 dereferenceable(16) %1, ptr noundef nonnull align 8 dereferenceable(40) %2) unnamed_addr #1 align 2 personality ptr @__gxx_personality_v0 {
  %4 = tail call noalias noundef nonnull dereferenceable(96) ptr @_Znwm(i64 noundef 96) #21
  %5 = getelementptr inbounds i8, ptr %1, i64 8
  %6 = load ptr, ptr %5, align 8
  store ptr getelementptr inbounds inrange(-16, 32) ({ [6 x ptr] }, ptr @_ZTVN3gmx12_GLOBAL__N_136ModificationCheckingFileOutputStreamE, i64 0, i32 0, i64 2), ptr %4, align 8
  %7 = getelementptr inbounds i8, ptr %4, i64 8
  invoke void @_ZNSt7__cxx1112basic_stringIcSt11char_traitsIcESaIcEEC1ERKS4_(ptr noundef nonnull align 8 dereferenceable(32) %7, ptr noundef nonnull align 8 dereferenceable(32) %2)
          to label %.noexc unwind label %33

.noexc:                                           ; preds = %3
  %8 = getelementptr inbounds i8, ptr %4, i64 40
  %9 = getelementptr inbounds i8, ptr %2, i64 32
  invoke void @_ZNSt10filesystem7__cxx114path5_ListC1ERKS2_(ptr noundef nonnull align 8 dereferenceable(8) %8, ptr noundef nonnull align 8 dereferenceable(8) %9)
          to label %11 unwind label %.body.i

.body.i:                                          ; preds = %.noexc
  %10 = landingpad { ptr, i32 }
          cleanup
  tail call void @_ZNSt7__cxx1112basic_stringIcSt11char_traitsIcESaIcEED1Ev(ptr noundef nonnull align 8 dereferenceable(32) %7) #19
  br label %.body

11:                                               ; preds = %.noexc
  %12 = getelementptr inbounds i8, ptr %4, i64 48
  store ptr getelementptr inbounds inrange(-16, 32) ({ [6 x ptr] }, ptr @_ZTVN3gmx18StringOutputStreamE, i64 0, i32 0, i64 2), ptr %12, align 8
  %13 = getelementptr inbounds i8, ptr %4, i64 56
  tail call void @_ZNSt7__cxx1112basic_stringIcSt11char_traitsIcESaIcEEC1Ev(ptr noundef nonnull align 8 dereferenceable(32) %13) #19
  %14 = getelementptr inbounds i8, ptr %4, i64 88
  store ptr %6, ptr %14, align 8
  store ptr %4, ptr %0, align 8
  %15 = getelementptr inbounds i8, ptr %0, i64 8
  store ptr null, ptr %15, align 8
  %16 = invoke noalias noundef nonnull dereferenceable(24) ptr @_Znwm(i64 noundef 24) #21
          to label %_ZNSt10shared_ptrIN3gmx16TextOutputStreamEEC2INS0_12_GLOBAL__N_136ModificationCheckingFileOutputStreamEvEEPT_.exit unwind label %17

17:                                               ; preds = %11
  %18 = landingpad { ptr, i32 }
          catch ptr null
  %19 = extractvalue { ptr, i32 } %18, 0
  %20 = tail call ptr @__cxa_begin_catch(ptr %19) #19
  %21 = load ptr, ptr %4, align 8
  %22 = getelementptr inbounds i8, ptr %21, i64 8
  %23 = load ptr, ptr %22, align 8
  tail call void %23(ptr noundef nonnull align 8 dereferenceable(96) %4) #19
  invoke void @__cxa_rethrow() #22
          to label %29 unwind label %24

24:                                               ; preds = %17
  %25 = landingpad { ptr, i32 }
          cleanup
  invoke void @__cxa_end_catch()
          to label %common.resume unwind label %26

common.resume:                                    ; preds = %24, %.body
  %common.resume.op = phi { ptr, i32 } [ %eh.lpad-body, %.body ], [ %25, %24 ]
  resume { ptr, i32 } %common.resume.op

26:                                               ; preds = %24
  %27 = landingpad { ptr, i32 }
          catch ptr null
  %28 = extractvalue { ptr, i32 } %27, 0
  tail call void @__clang_call_terminate(ptr %28) #25
  unreachable

29:                                               ; preds = %17
  unreachable

_ZNSt10shared_ptrIN3gmx16TextOutputStreamEEC2INS0_12_GLOBAL__N_136ModificationCheckingFileOutputStreamEvEEPT_.exit: ; preds = %11
  %30 = getelementptr inbounds i8, ptr %16, i64 8
  store i32 1, ptr %30, align 8
  %31 = getelementptr inbounds i8, ptr %16, i64 12
  store i32 1, ptr %31, align 4
  store ptr getelementptr inbounds inrange(-16, 40) ({ [7 x ptr] }, ptr @_ZTVSt15_Sp_counted_ptrIPN3gmx12_GLOBAL__N_136ModificationCheckingFileOutputStreamELN9__gnu_cxx12_Lock_policyE2EE, i64 0, i32 0, i64 2), ptr %16, align 8
  %32 = getelementptr inbounds i8, ptr %16, i64 16
  store ptr %4, ptr %32, align 8
  store ptr %16, ptr %15, align 8
  ret void

33:                                               ; preds = %3
  %34 = landingpad { ptr, i32 }
          cleanup
  br label %.body

.body:                                            ; preds = %.body.i, %33
  %eh.lpad-body = phi { ptr, i32 } [ %34, %33 ], [ %10, %.body.i ]
  tail call void @_ZdlPv(ptr noundef nonnull %4) #20
  br label %common.resume
}